target datalayout = "e-m:e-p270:32:32-p271:32:32-p272:64:64-i64:64-i128:128-f80:128-n8:16:32:64-S128"
target triple = "x86_64-pc-linux-gnu"

%struct.sqlite3_vfs = type { i32, i32, i32, ptr, ptr, ptr, ptr, ptr, ptr, ptr, ptr, ptr, ptr, ptr, ptr, ptr, ptr, ptr, ptr, ptr, ptr, ptr }

@.str.2 = private unnamed_addr constant [9 x i8] c"-journal\00", align 1
@.str.3 = private unnamed_addr constant [5 x i8] c"-wal\00", align 1

; Function Attrs: mustprogress uwtable
define internal noundef i32 @_ZN5osgeo4projL15VFSCustomAccessEP11sqlite3_vfsPKciPi(ptr noundef %0, ptr noundef %1, i32 noundef %2, ptr noundef %3) #4 {
  %5 = alloca i32, align 4
  %6 = alloca ptr, align 8
  %7 = alloca ptr, align 8
  %8 = alloca i32, align 4
  %9 = alloca ptr, align 8
  %10 = alloca ptr, align 8
  %11 = alloca i32, align 4
  store ptr %0, ptr %6, align 8, !tbaa !18
  store ptr %1, ptr %7, align 8, !tbaa !78
  store i32 %2, ptr %8, align 4, !tbaa !82
  store ptr %3, ptr %9, align 8, !tbaa !83
  call void @llvm.lifetime.start.p0(i64 8, ptr %10) #9
  %12 = load ptr, ptr %6, align 8, !tbaa !18
  %13 = getelementptr inbounds nuw %struct.sqlite3_vfs, ptr %12, i32 0, i32 5
  %14 = load ptr, ptr %13, align 8, !tbaa !85
  store ptr %14, ptr %10, align 8, !tbaa !18
  %15 = load ptr, ptr %7, align 8, !tbaa !78
  %16 = call noundef ptr @strstr(ptr noundef %15, ptr noundef @.str.2) #22
  %17 = icmp ne ptr %16, null
  br i1 %17, label %22, label %18

18:                                               ; preds = %4
  %19 = load ptr, ptr %7, align 8, !tbaa !78
  %20 = call noundef ptr @strstr(ptr noundef %19, ptr noundef @.str.3) #22
  %21 = icmp ne ptr %20, null
  br i1 %21, label %22, label %24

22:                                               ; preds = %18, %4
  %23 = load ptr, ptr %9, align 8, !tbaa !83
  store i32 0, ptr %23, align 4, !tbaa !82
  store i32 0, ptr %5, align 4
  store i32 1, ptr %11, align 4
  br label %33

24:                                               ; preds = %18
  %25 = load ptr, ptr %10, align 8, !tbaa !18
  %26 = getelementptr inbounds nuw %struct.sqlite3_vfs, ptr %25, i32 0, i32 8
  %27 = load ptr, ptr %26, align 8, !tbaa !47
  %28 = load ptr, ptr %10, align 8, !tbaa !18
  %29 = load ptr, ptr %7, align 8, !tbaa !78
  %30 = load i32, ptr %8, align 4, !tbaa !82
  %31 = load ptr, ptr %9, align 8, !tbaa !83
  %32 = call noundef i32 %27(ptr noundef %28, ptr noundef %29, i32 noundef %30, ptr noundef %31)
  store i32 %32, ptr %5, align 4
  store i32 1, ptr %11, align 4
  br label %33

33:                                               ; preds = %24, %22
  call void @llvm.lifetime.end.p0(i64 8, ptr %10) #9
  %34 = load i32, ptr %5, align 4
  ret i32 %34
}