; Function Attrs: mustprogress uwtable
define internal noundef i32 @_ZN5osgeo4projL15VFSCustomAccessEP11sqlite3_vfsPKciPi(ptr noundef readonly captures(none) %0, ptr noundef %1, i32 noundef %2, ptr noundef %3) #7 {
  %5 = getelementptr inbounds nuw i8, ptr %0, i64 32
  %6 = load ptr, ptr %5, align 8, !tbaa !75
  %7 = tail call noundef ptr @strstr(ptr noundef nonnull dereferenceable(1) %1, ptr noundef nonnull dereferenceable(1) @.str.2) #28
  %.not = icmp eq ptr %7, null
  br i1 %.not, label %8, label %10

8:                                                ; preds = %4
  %9 = tail call noundef ptr @strstr(ptr noundef nonnull dereferenceable(1) %1, ptr noundef nonnull dereferenceable(1) @.str.3) #28
  %.not9 = icmp eq ptr %9, null
  br i1 %.not9, label %11, label %10

10:                                               ; preds = %8, %4
  store i32 0, ptr %3, align 4, !tbaa !87
  br label %15

11:                                               ; preds = %8
  %12 = getelementptr inbounds nuw i8, ptr %6, i64 56
  %13 = load ptr, ptr %12, align 8, !tbaa !53
  %14 = tail call noundef i32 %13(ptr noundef %6, ptr noundef nonnull %1, i32 noundef %2, ptr noundef %3)
  br label %15

15:                                               ; preds = %11, %10
  %.0 = phi i32 [ 0, %10 ], [ %14, %11 ]
  ret i32 %.0
}